target datalayout = "e-m:e-p270:32:32-p271:32:32-p272:64:64-i64:64-i128:128-f80:128-n8:16:32:64-S128"
target triple = "x86_64-pc-linux-gnu"

%"class.cv::utils::trace::details::Region" = type <{ ptr, i32, [4 x i8] }>
%"class.cv::VariationalRefinementImpl" = type { %"class.cv::VariationalRefinement", i32, i32, float, float, float, float, float, float, %"class.cv::Mat_", %"class.cv::Mat_", %"class.cv::Mat_", %"class.cv::Mat_", %"class.cv::Mat_", %"class.cv::Mat_", %"class.cv::Mat_", %"class.cv::Mat_", %"struct.cv::VariationalRefinementImpl::RedBlackBuffer", %"struct.cv::VariationalRefinementImpl::RedBlackBuffer", %"struct.cv::VariationalRefinementImpl::RedBlackBuffer", %"struct.cv::VariationalRefinementImpl::RedBlackBuffer", %"struct.cv::VariationalRefinementImpl::RedBlackBuffer", %"struct.cv::VariationalRefinementImpl::RedBlackBuffer", %"struct.cv::VariationalRefinementImpl::RedBlackBuffer", %"struct.cv::VariationalRefinementImpl::RedBlackBuffer", %"struct.cv::VariationalRefinementImpl::RedBlackBuffer", %"struct.cv::VariationalRefinementImpl::RedBlackBuffer", %"struct.cv::VariationalRefinementImpl::RedBlackBuffer", %"struct.cv::VariationalRefinementImpl::RedBlackBuffer", %"struct.cv::VariationalRefinementImpl::RedBlackBuffer", %"struct.cv::VariationalRefinementImpl::RedBlackBuffer", %"class.cv::Mat_", %"class.cv::Mat_", %"struct.cv::VariationalRefinementImpl::RedBlackBuffer", %"struct.cv::VariationalRefinementImpl::RedBlackBuffer", %"struct.cv::VariationalRefinementImpl::RedBlackBuffer", %"struct.cv::VariationalRefinementImpl::RedBlackBuffer", %"struct.cv::VariationalRefinementImpl::RedBlackBuffer", %"struct.cv::VariationalRefinementImpl::RedBlackBuffer" }
%"class.cv::VariationalRefinement" = type { %"class.cv::DenseOpticalFlow" }
%"class.cv::DenseOpticalFlow" = type { %"class.cv::Algorithm" }
%"class.cv::Algorithm" = type { ptr }
%"class.cv::Mat_" = type { %"class.cv::Mat" }
%"class.cv::Mat" = type { i32, i32, i32, i32, ptr, ptr, ptr, ptr, ptr, ptr, %"struct.cv::MatSize", %"struct.cv::MatStep" }
%"struct.cv::MatSize" = type { ptr }
%"struct.cv::MatStep" = type { ptr, [2 x i64] }
%"struct.cv::VariationalRefinementImpl::RedBlackBuffer" = type { %"class.cv::Mat_", %"class.cv::Mat_", i32, i32, i32, i32 }

; Function Attrs: inlinehint mustprogress uwtable
define linkonce_odr hidden void @_ZN2cv4Mat_IfE7releaseEv(ptr noundef nonnull align 8 dereferenceable(96) %0) #1 comdat align 2 {
  %2 = alloca ptr, align 8
  store ptr %0, ptr %2, align 8, !tbaa !36
  %3 = load ptr, ptr %2, align 8
  call void @_ZN2cv3Mat7releaseEv(ptr noundef nonnull align 8 dereferenceable(96) %3)
  %4 = getelementptr inbounds nuw %"class.cv::Mat", ptr %3, i32 0, i32 0
  %5 = load i32, ptr %4, align 8, !tbaa !38
  %6 = and i32 %5, -4096
  %7 = add nsw i32 %6, 5
  %8 = getelementptr inbounds nuw %"class.cv::Mat", ptr %3, i32 0, i32 0
  store i32 %7, ptr %8, align 8, !tbaa !38
  ret void
}

; Function Attrs: mustprogress uwtable
define hidden void @_ZN2cv25VariationalRefinementImpl14collectGarbageEv(ptr noundef nonnull align 8 dereferenceable(5160) %0) unnamed_addr #0 align 2 personality ptr @__gxx_personality_v0 {
  %2 = alloca ptr, align 8
  %3 = alloca %"class.cv::utils::trace::details::Region", align 8
  %4 = alloca ptr, align 8
  %5 = alloca i32, align 4
  store ptr %0, ptr %2, align 8, !tbaa !3
  %6 = load ptr, ptr %2, align 8
  call void @llvm.lifetime.start.p0(i64 16, ptr %3) #18
  call void @_ZN2cv5utils5trace7details6RegionC1ERKNS3_21LocationStaticStorageE(ptr noundef nonnull align 8 dereferenceable(12) %3, ptr noundef nonnull align 8 dereferenceable(32) @_ZZN2cv25VariationalRefinementImpl14collectGarbageEvE26__cv_trace_location_fn1200)
  %7 = getelementptr inbounds nuw %"class.cv::VariationalRefinementImpl", ptr %6, i32 0, i32 9
  invoke void @_ZN2cv4Mat_IfE7releaseEv(ptr noundef nonnull align 8 dereferenceable(96) %7)
          to label %8 unwind label %67

8:                                                ; preds = %1
  %9 = getelementptr inbounds nuw %"class.cv::VariationalRefinementImpl", ptr %6, i32 0, i32 10
  invoke void @_ZN2cv4Mat_IfE7releaseEv(ptr noundef nonnull align 8 dereferenceable(96) %9)
          to label %10 unwind label %67

10:                                               ; preds = %8
  %11 = getelementptr inbounds nuw %"class.cv::VariationalRefinementImpl", ptr %6, i32 0, i32 11
  invoke void @_ZN2cv4Mat_IfE7releaseEv(ptr noundef nonnull align 8 dereferenceable(96) %11)
          to label %12 unwind label %67

12:                                               ; preds = %10
  %13 = getelementptr inbounds nuw %"class.cv::VariationalRefinementImpl", ptr %6, i32 0, i32 12
  invoke void @_ZN2cv4Mat_IfE7releaseEv(ptr noundef nonnull align 8 dereferenceable(96) %13)
          to label %14 unwind label %67

14:                                               ; preds = %12
  %15 = getelementptr inbounds nuw %"class.cv::VariationalRefinementImpl", ptr %6, i32 0, i32 13
  invoke void @_ZN2cv4Mat_IfE7releaseEv(ptr noundef nonnull align 8 dereferenceable(96) %15)
          to label %16 unwind label %67

16:                                               ; preds = %14
  %17 = getelementptr inbounds nuw %"class.cv::VariationalRefinementImpl", ptr %6, i32 0, i32 14
  invoke void @_ZN2cv4Mat_IfE7releaseEv(ptr noundef nonnull align 8 dereferenceable(96) %17)
          to label %18 unwind label %67

18:                                               ; preds = %16
  %19 = getelementptr inbounds nuw %"class.cv::VariationalRefinementImpl", ptr %6, i32 0, i32 15
  invoke void @_ZN2cv4Mat_IfE7releaseEv(ptr noundef nonnull align 8 dereferenceable(96) %19)
          to label %20 unwind label %67

20:                                               ; preds = %18
  %21 = getelementptr inbounds nuw %"class.cv::VariationalRefinementImpl", ptr %6, i32 0, i32 16
  invoke void @_ZN2cv4Mat_IfE7releaseEv(ptr noundef nonnull align 8 dereferenceable(96) %21)
          to label %22 unwind label %67

22:                                               ; preds = %20
  %23 = getelementptr inbounds nuw %"class.cv::VariationalRefinementImpl", ptr %6, i32 0, i32 17
  invoke void @_ZN2cv25VariationalRefinementImpl14RedBlackBuffer7releaseEv(ptr noundef nonnull align 8 dereferenceable(208) %23)
          to label %24 unwind label %67

24:                                               ; preds = %22
  %25 = getelementptr inbounds nuw %"class.cv::VariationalRefinementImpl", ptr %6, i32 0, i32 18
  invoke void @_ZN2cv25VariationalRefinementImpl14RedBlackBuffer7releaseEv(ptr noundef nonnull align 8 dereferenceable(208) %25)
          to label %26 unwind label %67

26:                                               ; preds = %24
  %27 = getelementptr inbounds nuw %"class.cv::VariationalRefinementImpl", ptr %6, i32 0, i32 19
  invoke void @_ZN2cv25VariationalRefinementImpl14RedBlackBuffer7releaseEv(ptr noundef nonnull align 8 dereferenceable(208) %27)
          to label %28 unwind label %67

28:                                               ; preds = %26
  %29 = getelementptr inbounds nuw %"class.cv::VariationalRefinementImpl", ptr %6, i32 0, i32 20
  invoke void @_ZN2cv25VariationalRefinementImpl14RedBlackBuffer7releaseEv(ptr noundef nonnull align 8 dereferenceable(208) %29)
          to label %30 unwind label %67

30:                                               ; preds = %28
  %31 = getelementptr inbounds nuw %"class.cv::VariationalRefinementImpl", ptr %6, i32 0, i32 21
  invoke void @_ZN2cv25VariationalRefinementImpl14RedBlackBuffer7releaseEv(ptr noundef nonnull align 8 dereferenceable(208) %31)
          to label %32 unwind label %67

32:                                               ; preds = %30
  %33 = getelementptr inbounds nuw %"class.cv::VariationalRefinementImpl", ptr %6, i32 0, i32 22
  invoke void @_ZN2cv25VariationalRefinementImpl14RedBlackBuffer7releaseEv(ptr noundef nonnull align 8 dereferenceable(208) %33)
          to label %34 unwind label %67

34:                                               ; preds = %32
  %35 = getelementptr inbounds nuw %"class.cv::VariationalRefinementImpl", ptr %6, i32 0, i32 23
  invoke void @_ZN2cv25VariationalRefinementImpl14RedBlackBuffer7releaseEv(ptr noundef nonnull align 8 dereferenceable(208) %35)
          to label %36 unwind label %67

36:                                               ; preds = %34
  %37 = getelementptr inbounds nuw %"class.cv::VariationalRefinementImpl", ptr %6, i32 0, i32 24
  invoke void @_ZN2cv25VariationalRefinementImpl14RedBlackBuffer7releaseEv(ptr noundef nonnull align 8 dereferenceable(208) %37)
          to label %38 unwind label %67

38:                                               ; preds = %36
  %39 = getelementptr inbounds nuw %"class.cv::VariationalRefinementImpl", ptr %6, i32 0, i32 25
  invoke void @_ZN2cv25VariationalRefinementImpl14RedBlackBuffer7releaseEv(ptr noundef nonnull align 8 dereferenceable(208) %39)
          to label %40 unwind label %67

40:                                               ; preds = %38
  %41 = getelementptr inbounds nuw %"class.cv::VariationalRefinementImpl", ptr %6, i32 0, i32 26
  invoke void @_ZN2cv25VariationalRefinementImpl14RedBlackBuffer7releaseEv(ptr noundef nonnull align 8 dereferenceable(208) %41)
          to label %42 unwind label %67

42:                                               ; preds = %40
  %43 = getelementptr inbounds nuw %"class.cv::VariationalRefinementImpl", ptr %6, i32 0, i32 27
  invoke void @_ZN2cv25VariationalRefinementImpl14RedBlackBuffer7releaseEv(ptr noundef nonnull align 8 dereferenceable(208) %43)
          to label %44 unwind label %67

44:                                               ; preds = %42
  %45 = getelementptr inbounds nuw %"class.cv::VariationalRefinementImpl", ptr %6, i32 0, i32 28
  invoke void @_ZN2cv25VariationalRefinementImpl14RedBlackBuffer7releaseEv(ptr noundef nonnull align 8 dereferenceable(208) %45)
          to label %46 unwind label %67

46:                                               ; preds = %44
  %47 = getelementptr inbounds nuw %"class.cv::VariationalRefinementImpl", ptr %6, i32 0, i32 29
  invoke void @_ZN2cv25VariationalRefinementImpl14RedBlackBuffer7releaseEv(ptr noundef nonnull align 8 dereferenceable(208) %47)
          to label %48 unwind label %67

48:                                               ; preds = %46
  %49 = getelementptr inbounds nuw %"class.cv::VariationalRefinementImpl", ptr %6, i32 0, i32 30
  invoke void @_ZN2cv25VariationalRefinementImpl14RedBlackBuffer7releaseEv(ptr noundef nonnull align 8 dereferenceable(208) %49)
          to label %50 unwind label %67

50:                                               ; preds = %48
  %51 = getelementptr inbounds nuw %"class.cv::VariationalRefinementImpl", ptr %6, i32 0, i32 31
  invoke void @_ZN2cv4Mat_IfE7releaseEv(ptr noundef nonnull align 8 dereferenceable(96) %51)
          to label %52 unwind label %67

52:                                               ; preds = %50
  %53 = getelementptr inbounds nuw %"class.cv::VariationalRefinementImpl", ptr %6, i32 0, i32 32
  invoke void @_ZN2cv4Mat_IfE7releaseEv(ptr noundef nonnull align 8 dereferenceable(96) %53)
          to label %54 unwind label %67

54:                                               ; preds = %52
  %55 = getelementptr inbounds nuw %"class.cv::VariationalRefinementImpl", ptr %6, i32 0, i32 33
  invoke void @_ZN2cv25VariationalRefinementImpl14RedBlackBuffer7releaseEv(ptr noundef nonnull align 8 dereferenceable(208) %55)
          to label %56 unwind label %67

56:                                               ; preds = %54
  %57 = getelementptr inbounds nuw %"class.cv::VariationalRefinementImpl", ptr %6, i32 0, i32 34
  invoke void @_ZN2cv25VariationalRefinementImpl14RedBlackBuffer7releaseEv(ptr noundef nonnull align 8 dereferenceable(208) %57)
          to label %58 unwind label %67

58:                                               ; preds = %56
  %59 = getelementptr inbounds nuw %"class.cv::VariationalRefinementImpl", ptr %6, i32 0, i32 35
  invoke void @_ZN2cv25VariationalRefinementImpl14RedBlackBuffer7releaseEv(ptr noundef nonnull align 8 dereferenceable(208) %59)
          to label %60 unwind label %67

60:                                               ; preds = %58
  %61 = getelementptr inbounds nuw %"class.cv::VariationalRefinementImpl", ptr %6, i32 0, i32 36
  invoke void @_ZN2cv25VariationalRefinementImpl14RedBlackBuffer7releaseEv(ptr noundef nonnull align 8 dereferenceable(208) %61)
          to label %62 unwind label %67

62:                                               ; preds = %60
  %63 = getelementptr inbounds nuw %"class.cv::VariationalRefinementImpl", ptr %6, i32 0, i32 37
  invoke void @_ZN2cv25VariationalRefinementImpl14RedBlackBuffer7releaseEv(ptr noundef nonnull align 8 dereferenceable(208) %63)
          to label %64 unwind label %67

64:                                               ; preds = %62
  %65 = getelementptr inbounds nuw %"class.cv::VariationalRefinementImpl", ptr %6, i32 0, i32 38
  invoke void @_ZN2cv25VariationalRefinementImpl14RedBlackBuffer7releaseEv(ptr noundef nonnull align 8 dereferenceable(208) %65)
          to label %66 unwind label %67

66:                                               ; preds = %64
  call void @_ZN2cv5utils5trace7details6RegionD2Ev(ptr noundef nonnull align 8 dereferenceable(12) %3) #18
  call void @llvm.lifetime.end.p0(i64 16, ptr %3) #18
  ret void

67:                                               ; preds = %64, %62, %60, %58, %56, %54, %52, %50, %48, %46, %44, %42, %40, %38, %36, %34, %32, %30, %28, %26, %24, %22, %20, %18, %16, %14, %12, %10, %8, %1
  %68 = landingpad { ptr, i32 }
          cleanup
  %69 = extractvalue { ptr, i32 } %68, 0
  store ptr %69, ptr %4, align 8
  %70 = extractvalue { ptr, i32 } %68, 1
  store i32 %70, ptr %5, align 4
  call void @_ZN2cv5utils5trace7details6RegionD2Ev(ptr noundef nonnull align 8 dereferenceable(12) %3) #18
  call void @llvm.lifetime.end.p0(i64 16, ptr %3) #18
  br label %71

71:                                               ; preds = %67
  %72 = load ptr, ptr %4, align 8
  %73 = load i32, ptr %5, align 4
  %74 = insertvalue { ptr, i32 } poison, ptr %72, 0
  %75 = insertvalue { ptr, i32 } %74, i32 %73, 1
  resume { ptr, i32 } %75
}