; Function Attrs: mustprogress uwtable
define hidden void @_ZN2cv25VariationalRefinementImpl14collectGarbageEv(ptr noundef nonnull align 8 dereferenceable(5160) %0) unnamed_addr #0 align 2 personality ptr @__gxx_personality_v0 {
  %2 = alloca %"class.cv::utils::trace::details::Region", align 8
  call void @llvm.lifetime.start.p0(i64 16, ptr nonnull %2) #18
  call void @_ZN2cv5utils5trace7details6RegionC1ERKNS3_21LocationStaticStorageE(ptr noundef nonnull align 8 dereferenceable(12) %2, ptr noundef nonnull align 8 dereferenceable(32) @_ZZN2cv25VariationalRefinementImpl14collectGarbageEvE26__cv_trace_location_fn1200)
  %3 = getelementptr inbounds nuw i8, ptr %0, i64 40
  invoke void @_ZN2cv3Mat7releaseEv(ptr noundef nonnull align 8 dereferenceable(96) %3)
          to label %4 unwind label %99

4:                                                ; preds = %1
  %5 = load i32, ptr %3, align 8, !tbaa !6
  %6 = and i32 %5, -4096
  %7 = or disjoint i32 %6, 5
  store i32 %7, ptr %3, align 8, !tbaa !6
  %8 = getelementptr inbounds nuw i8, ptr %0, i64 136
  invoke void @_ZN2cv3Mat7releaseEv(ptr noundef nonnull align 8 dereferenceable(96) %8)
          to label %9 unwind label %99

9:                                                ; preds = %4
  %10 = load i32, ptr %8, align 8, !tbaa !6
  %11 = and i32 %10, -4096
  %12 = or disjoint i32 %11, 5
  store i32 %12, ptr %8, align 8, !tbaa !6
  %13 = getelementptr inbounds nuw i8, ptr %0, i64 232
  invoke void @_ZN2cv3Mat7releaseEv(ptr noundef nonnull align 8 dereferenceable(96) %13)
          to label %14 unwind label %99

14:                                               ; preds = %9
  %15 = load i32, ptr %13, align 8, !tbaa !6
  %16 = and i32 %15, -4096
  %17 = or disjoint i32 %16, 5
  store i32 %17, ptr %13, align 8, !tbaa !6
  %18 = getelementptr inbounds nuw i8, ptr %0, i64 328
  invoke void @_ZN2cv3Mat7releaseEv(ptr noundef nonnull align 8 dereferenceable(96) %18)
          to label %19 unwind label %99

19:                                               ; preds = %14
  %20 = load i32, ptr %18, align 8, !tbaa !6
  %21 = and i32 %20, -4096
  %22 = or disjoint i32 %21, 5
  store i32 %22, ptr %18, align 8, !tbaa !6
  %23 = getelementptr inbounds nuw i8, ptr %0, i64 424
  invoke void @_ZN2cv3Mat7releaseEv(ptr noundef nonnull align 8 dereferenceable(96) %23)
          to label %24 unwind label %99

24:                                               ; preds = %19
  %25 = load i32, ptr %23, align 8, !tbaa !6
  %26 = and i32 %25, -4096
  %27 = or disjoint i32 %26, 5
  store i32 %27, ptr %23, align 8, !tbaa !6
  %28 = getelementptr inbounds nuw i8, ptr %0, i64 520
  invoke void @_ZN2cv3Mat7releaseEv(ptr noundef nonnull align 8 dereferenceable(96) %28)
          to label %29 unwind label %99

29:                                               ; preds = %24
  %30 = load i32, ptr %28, align 8, !tbaa !6
  %31 = and i32 %30, -4096
  %32 = or disjoint i32 %31, 5
  store i32 %32, ptr %28, align 8, !tbaa !6
  %33 = getelementptr inbounds nuw i8, ptr %0, i64 616
  invoke void @_ZN2cv3Mat7releaseEv(ptr noundef nonnull align 8 dereferenceable(96) %33)
          to label %34 unwind label %99

34:                                               ; preds = %29
  %35 = load i32, ptr %33, align 8, !tbaa !6
  %36 = and i32 %35, -4096
  %37 = or disjoint i32 %36, 5
  store i32 %37, ptr %33, align 8, !tbaa !6
  %38 = getelementptr inbounds nuw i8, ptr %0, i64 712
  invoke void @_ZN2cv3Mat7releaseEv(ptr noundef nonnull align 8 dereferenceable(96) %38)
          to label %39 unwind label %99

39:                                               ; preds = %34
  %40 = load i32, ptr %38, align 8, !tbaa !6
  %41 = and i32 %40, -4096
  %42 = or disjoint i32 %41, 5
  store i32 %42, ptr %38, align 8, !tbaa !6
  %43 = getelementptr inbounds nuw i8, ptr %0, i64 808
  invoke void @_ZN2cv25VariationalRefinementImpl14RedBlackBuffer7releaseEv(ptr noundef nonnull align 8 dereferenceable(208) %43)
          to label %44 unwind label %99

44:                                               ; preds = %39
  %45 = getelementptr inbounds nuw i8, ptr %0, i64 1016
  invoke void @_ZN2cv25VariationalRefinementImpl14RedBlackBuffer7releaseEv(ptr noundef nonnull align 8 dereferenceable(208) %45)
          to label %46 unwind label %99

46:                                               ; preds = %44
  %47 = getelementptr inbounds nuw i8, ptr %0, i64 1224
  invoke void @_ZN2cv25VariationalRefinementImpl14RedBlackBuffer7releaseEv(ptr noundef nonnull align 8 dereferenceable(208) %47)
          to label %48 unwind label %99

48:                                               ; preds = %46
  %49 = getelementptr inbounds nuw i8, ptr %0, i64 1432
  invoke void @_ZN2cv25VariationalRefinementImpl14RedBlackBuffer7releaseEv(ptr noundef nonnull align 8 dereferenceable(208) %49)
          to label %50 unwind label %99

50:                                               ; preds = %48
  %51 = getelementptr inbounds nuw i8, ptr %0, i64 1640
  invoke void @_ZN2cv25VariationalRefinementImpl14RedBlackBuffer7releaseEv(ptr noundef nonnull align 8 dereferenceable(208) %51)
          to label %52 unwind label %99

52:                                               ; preds = %50
  %53 = getelementptr inbounds nuw i8, ptr %0, i64 1848
  invoke void @_ZN2cv25VariationalRefinementImpl14RedBlackBuffer7releaseEv(ptr noundef nonnull align 8 dereferenceable(208) %53)
          to label %54 unwind label %99

54:                                               ; preds = %52
  %55 = getelementptr inbounds nuw i8, ptr %0, i64 2056
  invoke void @_ZN2cv25VariationalRefinementImpl14RedBlackBuffer7releaseEv(ptr noundef nonnull align 8 dereferenceable(208) %55)
          to label %56 unwind label %99

56:                                               ; preds = %54
  %57 = getelementptr inbounds nuw i8, ptr %0, i64 2264
  invoke void @_ZN2cv25VariationalRefinementImpl14RedBlackBuffer7releaseEv(ptr noundef nonnull align 8 dereferenceable(208) %57)
          to label %58 unwind label %99

58:                                               ; preds = %56
  %59 = getelementptr inbounds nuw i8, ptr %0, i64 2472
  invoke void @_ZN2cv25VariationalRefinementImpl14RedBlackBuffer7releaseEv(ptr noundef nonnull align 8 dereferenceable(208) %59)
          to label %60 unwind label %99

60:                                               ; preds = %58
  %61 = getelementptr inbounds nuw i8, ptr %0, i64 2680
  invoke void @_ZN2cv25VariationalRefinementImpl14RedBlackBuffer7releaseEv(ptr noundef nonnull align 8 dereferenceable(208) %61)
          to label %62 unwind label %99

62:                                               ; preds = %60
  %63 = getelementptr inbounds nuw i8, ptr %0, i64 2888
  invoke void @_ZN2cv25VariationalRefinementImpl14RedBlackBuffer7releaseEv(ptr noundef nonnull align 8 dereferenceable(208) %63)
          to label %64 unwind label %99

64:                                               ; preds = %62
  %65 = getelementptr inbounds nuw i8, ptr %0, i64 3096
  invoke void @_ZN2cv25VariationalRefinementImpl14RedBlackBuffer7releaseEv(ptr noundef nonnull align 8 dereferenceable(208) %65)
          to label %66 unwind label %99

66:                                               ; preds = %64
  %67 = getelementptr inbounds nuw i8, ptr %0, i64 3304
  invoke void @_ZN2cv25VariationalRefinementImpl14RedBlackBuffer7releaseEv(ptr noundef nonnull align 8 dereferenceable(208) %67)
          to label %68 unwind label %99

68:                                               ; preds = %66
  %69 = getelementptr inbounds nuw i8, ptr %0, i64 3512
  invoke void @_ZN2cv25VariationalRefinementImpl14RedBlackBuffer7releaseEv(ptr noundef nonnull align 8 dereferenceable(208) %69)
          to label %70 unwind label %99

70:                                               ; preds = %68
  %71 = getelementptr inbounds nuw i8, ptr %0, i64 3720
  invoke void @_ZN2cv3Mat7releaseEv(ptr noundef nonnull align 8 dereferenceable(96) %71)
          to label %72 unwind label %99

72:                                               ; preds = %70
  %73 = load i32, ptr %71, align 8, !tbaa !6
  %74 = and i32 %73, -4096
  %75 = or disjoint i32 %74, 5
  store i32 %75, ptr %71, align 8, !tbaa !6
  %76 = getelementptr inbounds nuw i8, ptr %0, i64 3816
  invoke void @_ZN2cv3Mat7releaseEv(ptr noundef nonnull align 8 dereferenceable(96) %76)
          to label %77 unwind label %99

77:                                               ; preds = %72
  %78 = load i32, ptr %76, align 8, !tbaa !6
  %79 = and i32 %78, -4096
  %80 = or disjoint i32 %79, 5
  store i32 %80, ptr %76, align 8, !tbaa !6
  %81 = getelementptr inbounds nuw i8, ptr %0, i64 3912
  invoke void @_ZN2cv25VariationalRefinementImpl14RedBlackBuffer7releaseEv(ptr noundef nonnull align 8 dereferenceable(208) %81)
          to label %82 unwind label %99

82:                                               ; preds = %77
  %83 = getelementptr inbounds nuw i8, ptr %0, i64 4120
  invoke void @_ZN2cv25VariationalRefinementImpl14RedBlackBuffer7releaseEv(ptr noundef nonnull align 8 dereferenceable(208) %83)
          to label %84 unwind label %99

84:                                               ; preds = %82
  %85 = getelementptr inbounds nuw i8, ptr %0, i64 4328
  invoke void @_ZN2cv25VariationalRefinementImpl14RedBlackBuffer7releaseEv(ptr noundef nonnull align 8 dereferenceable(208) %85)
          to label %86 unwind label %99

86:                                               ; preds = %84
  %87 = getelementptr inbounds nuw i8, ptr %0, i64 4536
  invoke void @_ZN2cv25VariationalRefinementImpl14RedBlackBuffer7releaseEv(ptr noundef nonnull align 8 dereferenceable(208) %87)
          to label %88 unwind label %99

88:                                               ; preds = %86
  %89 = getelementptr inbounds nuw i8, ptr %0, i64 4744
  invoke void @_ZN2cv25VariationalRefinementImpl14RedBlackBuffer7releaseEv(ptr noundef nonnull align 8 dereferenceable(208) %89)
          to label %90 unwind label %99

90:                                               ; preds = %88
  %91 = getelementptr inbounds nuw i8, ptr %0, i64 4952
  invoke void @_ZN2cv25VariationalRefinementImpl14RedBlackBuffer7releaseEv(ptr noundef nonnull align 8 dereferenceable(208) %91)
          to label %92 unwind label %99

92:                                               ; preds = %90
  %93 = getelementptr inbounds nuw i8, ptr %2, i64 8
  %94 = load i32, ptr %93, align 8, !tbaa !33
  %.not.i = icmp eq i32 %94, 0
  br i1 %.not.i, label %_ZN2cv5utils5trace7details6RegionD2Ev.exit, label %95

95:                                               ; preds = %92
  invoke void @_ZN2cv5utils5trace7details6Region7destroyEv(ptr noundef nonnull align 8 dereferenceable(12) %2)
          to label %_ZN2cv5utils5trace7details6RegionD2Ev.exit unwind label %96

96:                                               ; preds = %95
  %97 = landingpad { ptr, i32 }
          catch ptr null
  %98 = extractvalue { ptr, i32 } %97, 0
  call void @__clang_call_terminate(ptr %98) #19
  unreachable

_ZN2cv5utils5trace7details6RegionD2Ev.exit:       ; preds = %92, %95
  call void @llvm.lifetime.end.p0(i64 16, ptr nonnull %2) #18
  ret void

99:                                               ; preds = %72, %70, %34, %29, %24, %19, %14, %9, %4, %1, %90, %88, %86, %84, %82, %77, %68, %66, %64, %62, %60, %58, %56, %54, %52, %50, %48, %46, %44, %39
  %100 = landingpad { ptr, i32 }
          cleanup
  call void @_ZN2cv5utils5trace7details6RegionD2Ev(ptr noundef nonnull align 8 dereferenceable(12) %2) #18
  call void @llvm.lifetime.end.p0(i64 16, ptr nonnull %2) #18
  resume { ptr, i32 } %100
}